target datalayout = "e-m:e-p270:32:32-p271:32:32-p272:64:64-i64:64-i128:128-f80:128-n8:16:32:64-S128"
target triple = "x86_64-pc-linux-gnu"

%struct.ossl_namemap_st = type { i8, ptr, ptr, ptr, i32 }

; Function Attrs: inlinehint nounwind uwtable
define internal ptr @ossl_check_OPENSSL_STRING_sk_type(ptr noundef %0) #3 {
  %2 = alloca ptr, align 8
  store ptr %0, ptr %2, align 8, !tbaa !22
  %3 = load ptr, ptr %2, align 8, !tbaa !22
  ret ptr %3
}

; Function Attrs: inlinehint nounwind uwtable
define internal ptr @ossl_check_const_OPENSSL_STRING_sk_type(ptr noundef %0) #3 {
  %2 = alloca ptr, align 8
  store ptr %0, ptr %2, align 8, !tbaa !22
  %3 = load ptr, ptr %2, align 8, !tbaa !22
  ret ptr %3
}

; Function Attrs: inlinehint nounwind uwtable
define internal ptr @sk_NAMES_value(ptr noundef %0, i32 noundef %1) #3 {
  %3 = alloca ptr, align 8
  %4 = alloca i32, align 4
  store ptr %0, ptr %3, align 8, !tbaa !26
  store i32 %1, ptr %4, align 4, !tbaa !21
  %5 = load ptr, ptr %3, align 8, !tbaa !26
  %6 = load i32, ptr %4, align 4, !tbaa !21
  %7 = call ptr @OPENSSL_sk_value(ptr noundef %5, i32 noundef %6)
  ret ptr %7
}

; Function Attrs: nounwind uwtable
define i32 @ossl_namemap_doall_names(ptr noundef %0, i32 noundef %1, ptr noundef %2, ptr noundef %3) #0 {
  %5 = alloca i32, align 4
  %6 = alloca ptr, align 8
  %7 = alloca i32, align 4
  %8 = alloca ptr, align 8
  %9 = alloca ptr, align 8
  %10 = alloca i32, align 4
  %11 = alloca ptr, align 8
  %12 = alloca i32, align 4
  store ptr %0, ptr %6, align 8, !tbaa !8
  store i32 %1, ptr %7, align 4, !tbaa !21
  store ptr %2, ptr %8, align 8, !tbaa !20
  store ptr %3, ptr %9, align 8, !tbaa !20
  call void @llvm.lifetime.start.p0(i64 4, ptr %10) #7
  call void @llvm.lifetime.start.p0(i64 8, ptr %11) #7
  %13 = load ptr, ptr %6, align 8, !tbaa !8
  %14 = icmp eq ptr %13, null
  br i1 %14, label %18, label %15

15:                                               ; preds = %4
  %16 = load i32, ptr %7, align 4, !tbaa !21
  %17 = icmp sle i32 %16, 0
  br i1 %17, label %18, label %19

18:                                               ; preds = %15, %4
  store i32 0, ptr %5, align 4
  store i32 1, ptr %12, align 4
  br label %70

19:                                               ; preds = %15
  %20 = load ptr, ptr %6, align 8, !tbaa !8
  %21 = getelementptr inbounds nuw %struct.ossl_namemap_st, ptr %20, i32 0, i32 2
  %22 = load ptr, ptr %21, align 8, !tbaa !14
  %23 = call i32 @CRYPTO_THREAD_read_lock(ptr noundef %22)
  %24 = icmp ne i32 %23, 0
  br i1 %24, label %26, label %25

25:                                               ; preds = %19
  store i32 0, ptr %5, align 4
  store i32 1, ptr %12, align 4
  br label %70

26:                                               ; preds = %19
  %27 = load ptr, ptr %6, align 8, !tbaa !8
  %28 = getelementptr inbounds nuw %struct.ossl_namemap_st, ptr %27, i32 0, i32 3
  %29 = load ptr, ptr %28, align 8, !tbaa !19
  %30 = load i32, ptr %7, align 4, !tbaa !21
  %31 = sub nsw i32 %30, 1
  %32 = call ptr @sk_NAMES_value(ptr noundef %29, i32 noundef %31)
  store ptr %32, ptr %11, align 8, !tbaa !22
  %33 = load ptr, ptr %11, align 8, !tbaa !22
  %34 = icmp ne ptr %33, null
  br i1 %34, label %35, label %39

35:                                               ; preds = %26
  %36 = load ptr, ptr %11, align 8, !tbaa !22
  %37 = call ptr @ossl_check_const_OPENSSL_STRING_sk_type(ptr noundef %36)
  %38 = call ptr @OPENSSL_sk_dup(ptr noundef %37)
  store ptr %38, ptr %11, align 8, !tbaa !22
  br label %39

39:                                               ; preds = %35, %26
  %40 = load ptr, ptr %6, align 8, !tbaa !8
  %41 = getelementptr inbounds nuw %struct.ossl_namemap_st, ptr %40, i32 0, i32 2
  %42 = load ptr, ptr %41, align 8, !tbaa !14
  %43 = call i32 @CRYPTO_THREAD_unlock(ptr noundef %42)
  %44 = load ptr, ptr %11, align 8, !tbaa !22
  %45 = icmp eq ptr %44, null
  br i1 %45, label %46, label %47

46:                                               ; preds = %39
  store i32 0, ptr %5, align 4
  store i32 1, ptr %12, align 4
  br label %70

47:                                               ; preds = %39
  store i32 0, ptr %10, align 4, !tbaa !21
  br label %48

48:                                               ; preds = %61, %47
  %49 = load i32, ptr %10, align 4, !tbaa !21
  %50 = load ptr, ptr %11, align 8, !tbaa !22
  %51 = call ptr @ossl_check_const_OPENSSL_STRING_sk_type(ptr noundef %50)
  %52 = call i32 @OPENSSL_sk_num(ptr noundef %51)
  %53 = icmp slt i32 %49, %52
  br i1 %53, label %54, label %64

54:                                               ; preds = %48
  %55 = load ptr, ptr %8, align 8, !tbaa !20
  %56 = load ptr, ptr %11, align 8, !tbaa !22
  %57 = call ptr @ossl_check_const_OPENSSL_STRING_sk_type(ptr noundef %56)
  %58 = load i32, ptr %10, align 4, !tbaa !21
  %59 = call ptr @OPENSSL_sk_value(ptr noundef %57, i32 noundef %58)
  %60 = load ptr, ptr %9, align 8, !tbaa !20
  call void %55(ptr noundef %59, ptr noundef %60)
  br label %61

61:                                               ; preds = %54
  %62 = load i32, ptr %10, align 4, !tbaa !21
  %63 = add nsw i32 %62, 1
  store i32 %63, ptr %10, align 4, !tbaa !21
  br label %48, !llvm.loop !24

64:                                               ; preds = %48
  %65 = load ptr, ptr %11, align 8, !tbaa !22
  %66 = call ptr @ossl_check_OPENSSL_STRING_sk_type(ptr noundef %65)
  call void @OPENSSL_sk_free(ptr noundef %66)
  %67 = load i32, ptr %10, align 4, !tbaa !21
  %68 = icmp sgt i32 %67, 0
  %69 = zext i1 %68 to i32
  store i32 %69, ptr %5, align 4
  store i32 1, ptr %12, align 4
  br label %70

70:                                               ; preds = %64, %46, %25, %18
  call void @llvm.lifetime.end.p0(i64 8, ptr %11) #7
  call void @llvm.lifetime.end.p0(i64 4, ptr %10) #7
  %71 = load i32, ptr %5, align 4
  ret i32 %71
}