; Function Attrs: nounwind uwtable
define range(i32 0, 2) i32 @ossl_namemap_doall_names(ptr noundef readonly captures(address_is_null) %0, i32 noundef %1, ptr noundef readonly captures(none) %2, ptr noundef %3) local_unnamed_addr #0 {
  %5 = icmp eq ptr %0, null
  %6 = icmp slt i32 %1, 1
  %or.cond = or i1 %5, %6
  br i1 %or.cond, label %30, label %7

7:                                                ; preds = %4
  %8 = getelementptr inbounds nuw i8, ptr %0, i64 16
  %9 = load ptr, ptr %8, align 8, !tbaa !11
  %10 = tail call i32 @CRYPTO_THREAD_read_lock(ptr noundef %9) #6
  %.not = icmp eq i32 %10, 0
  br i1 %.not, label %30, label %11

11:                                               ; preds = %7
  %12 = getelementptr inbounds nuw i8, ptr %0, i64 24
  %13 = load ptr, ptr %12, align 8, !tbaa !16
  %14 = add nsw i32 %1, -1
  %15 = tail call ptr @OPENSSL_sk_value(ptr noundef %13, i32 noundef range(i32 0, 2147483647) %14) #6
  %.not24 = icmp eq ptr %15, null
  br i1 %.not24, label %.thread, label %18

.thread:                                          ; preds = %11
  %16 = load ptr, ptr %8, align 8, !tbaa !11
  %17 = tail call i32 @CRYPTO_THREAD_unlock(ptr noundef %16) #6
  br label %30

18:                                               ; preds = %11
  %19 = tail call ptr @OPENSSL_sk_dup(ptr noundef nonnull %15) #6
  %20 = load ptr, ptr %8, align 8, !tbaa !11
  %21 = tail call i32 @CRYPTO_THREAD_unlock(ptr noundef %20) #6
  %22 = icmp eq ptr %19, null
  br i1 %22, label %30, label %.preheader

.preheader:                                       ; preds = %18
  %23 = tail call i32 @OPENSSL_sk_num(ptr noundef nonnull %19) #6
  %24 = icmp sgt i32 %23, 0
  br i1 %24, label %.lr.ph, label %._crit_edge

.lr.ph:                                           ; preds = %.preheader, %.lr.ph
  %.01926 = phi i32 [ %26, %.lr.ph ], [ 0, %.preheader ]
  %25 = tail call ptr @OPENSSL_sk_value(ptr noundef nonnull %19, i32 noundef %.01926) #6
  tail call void %2(ptr noundef %25, ptr noundef %3) #6
  %26 = add nuw nsw i32 %.01926, 1
  %27 = tail call i32 @OPENSSL_sk_num(ptr noundef nonnull %19) #6
  %28 = icmp slt i32 %26, %27
  br i1 %28, label %.lr.ph, label %._crit_edge, !llvm.loop !17

._crit_edge:                                      ; preds = %.lr.ph, %.preheader
  tail call void @OPENSSL_sk_free(ptr noundef nonnull %19) #6
  %29 = zext i1 %24 to i32
  br label %30

30:                                               ; preds = %.thread, %18, %7, %4, %._crit_edge
  %.020 = phi i32 [ %29, %._crit_edge ], [ 0, %4 ], [ 0, %7 ], [ 0, %18 ], [ 0, %.thread ]
  ret i32 %.020
}